target datalayout = "e-m:e-p270:32:32-p271:32:32-p272:64:64-i64:64-i128:128-f80:128-n8:16:32:64-S128"
target triple = "x86_64-pc-linux-gnu"

%struct.Mpm_Man_t_ = type { ptr, ptr, i32, i32, i32, ptr, i32, i32, i64, i64, ptr, i32, [33 x ptr], [33 x %struct.Mpm_Uni_t_], %struct.Vec_Ptr_t_, ptr, ptr, [3 x i32], [3 x [33 x ptr]], [3 x [33 x i64]], ptr, i32, i32, [64 x i64], [64 x i64], [64 x i64], [64 x i64], ptr, ptr, ptr, ptr, [720 x [6 x i8]], ptr, [3 x i32], [3 x i32], ptr, %struct.Vec_Int_t_, %struct.Vec_Int_t_, %struct.Vec_Int_t_, %struct.Vec_Int_t_, %struct.Vec_Int_t_, %struct.Vec_Int_t_, %struct.Vec_Int_t_, %struct.Vec_Int_t_, %struct.Vec_Int_t_, [600 x i32], i32, i32, i32, i32, i32, i64, i64, i64, i64, i64, i64, i64 }
%struct.Mpm_Uni_t_ = type { i32, i32, i32, i32, i64, i32, %struct.Mpm_Cut_t_, [11 x i32] }
%struct.Mpm_Cut_t_ = type { i32, i32, [1 x i32] }
%struct.Vec_Ptr_t_ = type { i32, i32, ptr }
%struct.Vec_Int_t_ = type { i32, i32, ptr }
%struct.Mpm_Par_t_ = type { ptr, ptr, i32, i32, i32, i32, i32, i32, i32, i32, i32, i32, i32, i32, i32 }

; Function Attrs: nounwind uwtable
define ptr @Mpm_ManPerformCellMapping(ptr noundef %0, ptr noundef %1, ptr noundef %2) #0 {
  %4 = alloca ptr, align 8
  %5 = alloca ptr, align 8
  %6 = alloca ptr, align 8
  %7 = alloca ptr, align 8
  %8 = alloca ptr, align 8
  store ptr %0, ptr %4, align 8
  store ptr %1, ptr %5, align 8
  store ptr %2, ptr %6, align 8
  %9 = load ptr, ptr %4, align 8
  %10 = load ptr, ptr %5, align 8
  %11 = call ptr @Mpm_ManStart(ptr noundef %9, ptr noundef %10)
  store ptr %11, ptr %8, align 8
  %12 = load ptr, ptr %8, align 8
  %13 = getelementptr inbounds %struct.Mpm_Man_t_, ptr %12, i32 0, i32 1
  %14 = load ptr, ptr %13, align 8
  %15 = getelementptr inbounds %struct.Mpm_Par_t_, ptr %14, i32 0, i32 13
  %16 = load i32, ptr %15, align 4
  %17 = icmp ne i32 %16, 0
  br i1 %17, label %18, label %20

18:                                               ; preds = %3
  %19 = load ptr, ptr %8, align 8
  call void @Mpm_ManPrintStatsInit(ptr noundef %19)
  br label %20

20:                                               ; preds = %18, %3
  %21 = load ptr, ptr %8, align 8
  %22 = load ptr, ptr %8, align 8
  %23 = getelementptr inbounds %struct.Mpm_Man_t_, ptr %22, i32 0, i32 1
  %24 = load ptr, ptr %23, align 8
  %25 = getelementptr inbounds %struct.Mpm_Par_t_, ptr %24, i32 0, i32 1
  %26 = load ptr, ptr %25, align 8
  %27 = call ptr @Mpm_ManFindDsdMatches(ptr noundef %21, ptr noundef %26)
  %28 = load ptr, ptr %8, align 8
  %29 = getelementptr inbounds %struct.Mpm_Man_t_, ptr %28, i32 0, i32 35
  store ptr %27, ptr %29, align 8
  %30 = load ptr, ptr %8, align 8
  call void @Mpm_ManPrepare(ptr noundef %30)
  %31 = load ptr, ptr %8, align 8
  call void @Mpm_ManPerform(ptr noundef %31)
  %32 = load ptr, ptr %8, align 8
  %33 = getelementptr inbounds %struct.Mpm_Man_t_, ptr %32, i32 0, i32 1
  %34 = load ptr, ptr %33, align 8
  %35 = getelementptr inbounds %struct.Mpm_Par_t_, ptr %34, i32 0, i32 13
  %36 = load i32, ptr %35, align 4
  %37 = icmp ne i32 %36, 0
  br i1 %37, label %38, label %40

38:                                               ; preds = %20
  %39 = load ptr, ptr %8, align 8
  call void @Mpm_ManPrintStats(ptr noundef %39)
  br label %40

40:                                               ; preds = %38, %20
  %41 = load ptr, ptr %8, align 8
  %42 = load ptr, ptr %6, align 8
  %43 = call ptr @Mpm_ManDeriveMappedAbcNtk(ptr noundef %41, ptr noundef %42)
  store ptr %43, ptr %7, align 8
  %44 = load ptr, ptr %8, align 8
  call void @Mpm_ManStop(ptr noundef %44)
  %45 = load ptr, ptr %7, align 8
  ret ptr %45
}