; Function Attrs: nounwind uwtable
define ptr @Mpm_ManPerformCellMapping(ptr noundef %0, ptr noundef %1, ptr noundef %2) local_unnamed_addr #0 {
  %4 = tail call ptr @Mpm_ManStart(ptr noundef %0, ptr noundef %1) #11
  %5 = getelementptr inbounds nuw i8, ptr %4, i64 8
  %6 = load ptr, ptr %5, align 8
  %7 = getelementptr inbounds nuw i8, ptr %6, i64 60
  %8 = load i32, ptr %7, align 4
  %.not = icmp eq i32 %8, 0
  br i1 %.not, label %10, label %9

9:                                                ; preds = %3
  tail call void @Mpm_ManPrintStatsInit(ptr noundef nonnull %4) #11
  %.pre = load ptr, ptr %5, align 8
  br label %10

10:                                               ; preds = %9, %3
  %11 = phi ptr [ %.pre, %9 ], [ %6, %3 ]
  %12 = getelementptr inbounds nuw i8, ptr %11, i64 8
  %13 = load ptr, ptr %12, align 8
  %14 = tail call ptr @Mpm_ManFindDsdMatches(ptr noundef nonnull %4, ptr noundef %13)
  %15 = getelementptr inbounds nuw i8, ptr %4, i64 11328
  store ptr %14, ptr %15, align 8
  tail call void @Mpm_ManPrepare(ptr noundef nonnull %4) #11
  tail call void @Mpm_ManPerform(ptr noundef nonnull %4) #11
  %16 = load ptr, ptr %5, align 8
  %17 = getelementptr inbounds nuw i8, ptr %16, i64 60
  %18 = load i32, ptr %17, align 4
  %.not15 = icmp eq i32 %18, 0
  br i1 %.not15, label %20, label %19

19:                                               ; preds = %10
  tail call void @Mpm_ManPrintStats(ptr noundef nonnull %4) #11
  br label %20

20:                                               ; preds = %19, %10
  %21 = tail call ptr @Mpm_ManDeriveMappedAbcNtk(ptr noundef nonnull %4, ptr noundef %2)
  tail call void @Mpm_ManStop(ptr noundef nonnull %4) #11
  ret ptr %21
}